; Function Attrs: nounwind uwtable
define internal zeroext i1 @HIDAPI_DriverGIP_SetJoystickLED(ptr noundef readonly captures(none) %0, ptr noundef readonly captures(none) %1, i8 noundef zeroext %2, i8 noundef zeroext %3, i8 noundef zeroext %4) #0 {
  %6 = alloca [2054 x i8], align 16
  %7 = getelementptr i8, ptr %0, i64 112
  %.val = load ptr, ptr %7, align 8
  %8 = getelementptr inbounds nuw i8, ptr %.val, i64 24
  br label %9

9:                                                ; preds = %17, %5
  %indvars.iv.i = phi i64 [ 0, %5 ], [ %indvars.iv.next.i, %17 ]
  %10 = getelementptr inbounds nuw [8 x ptr], ptr %8, i64 0, i64 %indvars.iv.i
  %11 = load ptr, ptr %10, align 8
  %.not.i = icmp eq ptr %11, null
  br i1 %.not.i, label %17, label %12

12:                                               ; preds = %9
  %13 = getelementptr inbounds nuw i8, ptr %11, i64 12
  %14 = load i32, ptr %13, align 4
  %15 = load i32, ptr %1, align 8
  %16 = icmp eq i32 %14, %15
  br i1 %16, label %HIDAPI_DriverGIP_FindAttachment.exit, label %17

17:                                               ; preds = %12, %9
  %indvars.iv.next.i = add nuw nsw i64 %indvars.iv.i, 1
  %exitcond.not.i = icmp eq i64 %indvars.iv.next.i, 8
  br i1 %exitcond.not.i, label %18, label %9, !llvm.loop !12

18:                                               ; preds = %17
  %19 = tail call zeroext i1 (ptr, ...) @SDL_SetError_REAL(ptr noundef nonnull @.str.52) #10
  br label %38

HIDAPI_DriverGIP_FindAttachment.exit:             ; preds = %12
  %20 = getelementptr inbounds nuw i8, ptr %11, i64 332
  %21 = load i32, ptr %20, align 4
  %22 = and i32 %21, 64
  %.not9 = icmp eq i32 %22, 0
  br i1 %.not9, label %23, label %25

23:                                               ; preds = %HIDAPI_DriverGIP_FindAttachment.exit
  %24 = tail call zeroext i1 (ptr, ...) @SDL_SetError_REAL(ptr noundef nonnull @.str.53) #10
  br label %38

25:                                               ; preds = %HIDAPI_DriverGIP_FindAttachment.exit
  %26 = load ptr, ptr %11, align 8
  %27 = getelementptr inbounds nuw i8, ptr %11, i64 220
  %28 = load i8, ptr %27, align 4
  %29 = add i8 %28, 1
  %.not.i.i = icmp eq i8 %28, 0
  %spec.store.select32.i.i = select i1 %.not.i.i, i8 2, i8 %29
  store i8 %spec.store.select32.i.i, ptr %27, align 4
  %spec.select33.i.i = tail call i8 @llvm.umax.i8(i8 %28, i8 1)
  call void @llvm.lifetime.start.p0(i64 2054, ptr nonnull %6) #10
  call void @llvm.memset.p0.i64(ptr noundef nonnull align 16 dereferenceable(2054) %6, i8 0, i64 2054, i1 false)
  store i8 14, ptr %6, align 16
  %30 = getelementptr inbounds nuw i8, ptr %6, i64 2
  store i8 %spec.select33.i.i, ptr %30, align 2
  %31 = getelementptr inbounds nuw i8, ptr %6, i64 3
  store i8 5, ptr %31, align 1
  %.sroa.4.0..sroa_idx = getelementptr inbounds nuw i8, ptr %6, i64 5
  store i8 0, ptr %.sroa.4.0..sroa_idx, align 1
  %.sroa.5.0..sroa_idx = getelementptr inbounds nuw i8, ptr %6, i64 6
  store i8 %2, ptr %.sroa.5.0..sroa_idx, align 2
  %.sroa.6.0..sroa_idx = getelementptr inbounds nuw i8, ptr %6, i64 7
  store i8 %3, ptr %.sroa.6.0..sroa_idx, align 1
  %.sroa.7.0..sroa_idx = getelementptr inbounds nuw i8, ptr %6, i64 8
  store i8 %4, ptr %.sroa.7.0..sroa_idx, align 8
  %32 = tail call zeroext i1 @SDL_HIDAPI_LockRumble() #10
  br i1 %32, label %GIP_SendVendorMessage.exit, label %GIP_SendVendorMessage.exit.thread

GIP_SendVendorMessage.exit.thread:                ; preds = %25
  call void @llvm.lifetime.end.p0(i64 2054, ptr nonnull %6) #10
  br label %36

GIP_SendVendorMessage.exit:                       ; preds = %25
  %33 = load ptr, ptr %26, align 8
  %34 = call i32 @SDL_HIDAPI_SendRumbleWithCallbackAndUnlock(ptr noundef %33, ptr noundef nonnull %6, i32 noundef 9, ptr noundef null, ptr noundef null) #10
  %35 = icmp eq i32 %34, 9
  call void @llvm.lifetime.end.p0(i64 2054, ptr nonnull %6) #10
  br i1 %35, label %38, label %36

36:                                               ; preds = %GIP_SendVendorMessage.exit.thread, %GIP_SendVendorMessage.exit
  %37 = call zeroext i1 (ptr, ...) @SDL_SetError_REAL(ptr noundef nonnull @.str.54) #10
  br label %38

38:                                               ; preds = %GIP_SendVendorMessage.exit, %36, %23, %18
  %.0 = phi i1 [ %37, %36 ], [ %24, %23 ], [ %19, %18 ], [ true, %GIP_SendVendorMessage.exit ]
  ret i1 %.0
}